ccopy_reg
_reconstructor
p0
(cargparse
Namespace
p1
c__builtin__
object
p2
Ntp3
Rp4
(dp5
S'diff_num_target_ckpt'
p6
I00
sS'clip'
p7
F0.1
sS'import_config'
p8
S''
p9
sS'sat_nlayer'
p10
I2
sS'subsampling'
p11
I3
sS'half_period'
p12
I10
sS'sat_stage'
p13
S'fine_tune'
p14
sS'nlayer'
p15
I4
sS'nhidden'
p16
I320
sS'data_dir'
p17
S'/tmp/tmp.sGpbWXtV4f'
p18
sS'half_rate'
p19
F0.5
sS'do_shuf'
p20
I01
sS'nepoch'
p21
I25
sS'window'
p22
I3
sS'grad_opt'
p23
S'grad'
p24
sS'ninitproj'
p25
I0
sS'roll'
p26
I00
sS'continue_ckpt_sat'
p27
I00
sS'sat_type'
p28
S'non_adapted'
p29
sS'batch_size'
p30
I16
sS'lstm_type'
p31
S'cudnn'
p32
sS'lr_rate'
p33
F0.005
sS'nfinalproj'
p34
I0
sS'nproj'
p35
I0
sS'half_after'
p36
I6
sS'augment'
p37
I01
sS'train_dir'
p38
S'exp/train_char_l4_c320_mdeepbilstm_w3_nfalse'
p39
sS'l2'
p40
F0.0001
sS'store_model'
p41
I01
sS'debug'
p42
I00
sS'continue_ckpt'
p43
g9
sS'model'
p44
S'deepbilstm'
p45
sS'force_lr_epoch_ckpt'
p46
I00
sS'batch_norm'
p47
I00
sb.